Certificate:
    Data:
        Version: 3 (0x2)
        Serial Number: 1 (0x1)
    Signature Algorithm: sha256WithRSAEncryption
        Issuer: C=BE, ST=Antwerp, L=Willebroek, O=QBis Public CA, CN=QBis Default CA/emailAddress=.
        Validity
            Not Before: Nov  5 15:26:08 2014 GMT
            Not After : Aug  4 15:26:08 2024 GMT
        Subject: C=BE, ST=Antwerp, L=Willebroek, CN=QBis Server
        Subject Public Key Info:
            Public Key Algorithm: rsaEncryption
                Public-Key: (2048 bit)
                Modulus:
                    00:be:06:08:e0:80:95:69:d9:ca:bb:9b:c4:fc:5f:
                    f2:75:a6:f4:c2:f3:ea:2b:94:71:a4:bb:6d:f3:97:
                    ec:a0:d2:5c:a8:b8:3e:6c:a2:57:a5:7a:c1:fc:dd:
                    71:e0:64:9d:e3:29:e8:71:df:98:df:1e:fa:39:a7:
                    c3:09:70:9f:de:a5:3c:87:da:90:90:2f:fc:34:05:
                    25:ee:45:d9:f9:d4:75:56:23:86:fe:59:f9:d1:91:
                    a2:5a:bc:e2:e7:65:59:df:c4:f7:42:67:ef:5c:cb:
                    77:ad:38:59:30:5d:c5:94:f6:3d:ad:b0:4e:90:ef:
                    88:9d:53:ab:57:70:99:70:5d:52:e3:9a:3a:0b:19:
                    96:6f:e9:56:10:6a:66:e2:89:4b:53:a7:79:ea:46:
                    57:b9:43:b1:cf:12:e5:5b:ea:26:dc:d1:ba:74:0a:
                    6f:d7:9c:27:c7:80:65:71:1e:b4:09:76:c4:84:98:
                    a8:e3:0f:e8:85:fa:68:e2:35:04:3d:94:7f:ce:ae:
                    3a:2d:5d:c2:22:5d:68:09:1e:3f:d7:25:81:13:8f:
                    68:d4:1d:26:37:ba:cc:da:ab:45:a3:83:fe:b8:68:
                    e9:f2:a7:98:b6:f0:51:d7:8d:f2:59:a9:7f:ea:04:
                    86:9c:e4:a1:12:c2:f4:5a:e7:67:e2:44:31:71:7b:
                    39:19
                Exponent: 65537 (0x10001)
        X509v3 extensions:
            X509v3 Subject Key Identifier: 
                2F:BA:06:98:FA:AE:D1:49:23:24:94:DF:E6:12:2D:75:2E:05:79:37
            X509v3 Authority Key Identifier: 
                keyid:D9:C1:1D:7D:23:48:82:89:43:E6:21:32:52:4B:31:8D:F1:3C:CE:BE

            X509v3 Basic Constraints: 
                CA:FALSE
            X509v3 Key Usage: 
                Digital Signature, Non Repudiation, Key Encipherment
            X509v3 Subject Alternative Name: 
                DNS:kiff, DNS:kiff.qavanna.intra, DNS:qavanna.servebeer.com
            Netscape Comment: 
                OpenSSL Generated Certificate
    Signature Algorithm: sha256WithRSAEncryption
         15:8b:0b:4f:9b:7e:63:51:b2:7b:69:e9:be:27:ff:ab:b7:7a:
         c1:50:d7:7a:59:ea:00:09:d7:5b:3d:fb:63:62:20:84:f2:82:
         8d:08:02:01:90:c1:cb:6d:73:60:53:63:e6:0b:6e:44:b0:ea:
         db:8e:d1:a3:93:9b:5c:7c:0e:f9:b0:75:32:ea:ce:60:7f:5e:
         67:97:17:e2:b3:37:d4:5b:4a:d4:df:98:1a:fc:06:9a:66:ae:
         a5:2c:14:71:a5:a2:6f:b8:f4:d4:92:fa:b5:41:ab:90:6e:ff:
         8d:b7:9d:49:c9:2f:fc:d6:bd:41:ec:90:1e:80:64:71:54:1b:
         dd:c1:cc:1c:4d:f0:01:f5:6a:e0:01:ea:c9:45:fa:3b:67:29:
         9d:50:cc:78:87:75:e4:b5:18:e6:c2:61:08:9f:f5:65:ca:a5:
         64:ff:77:08:d1:e2:fc:59:bf:80:47:cb:fc:6c:9d:23:f3:9e:
         f5:31:dc:21:e1:2c:c4:3f:b6:0e:7a:bd:d4:c5:62:7e:76:2b:
         a6:f6:28:4e:04:fb:3c:29:5d:f2:41:9f:0a:a2:41:8f:29:99:
         5a:8e:ab:47:2b:00:34:e7:bb:c3:b8:ef:09:f9:83:28:4a:3e:
         98:93:d6:33:c2:21:8b:a3:41:df:fb:d6:a8:8c:d6:49:7d:54:
         34:ef:2a:72:7c:ec:59:9e:d6:4e:85:9d:6b:85:ef:44:1d:b0:
         eb:e3:6e:d4:8e:a8:fc:5b:78:13:f5:82:b8:76:9c:1a:a9:75:
         72:ac:64:c6:dc:c6:4a:be:f7:d2:1b:1e:6b:c9:41:b7:91:78:
         e4:0e:e6:39:a2:b9:2a:a5:66:88:8e:7f:2b:10:f0:77:20:1f:
         84:05:4b:36:a4:74:1b:1c:9f:d3:37:c8:ce:81:79:76:80:e0:
         ac:17:36:b0:50:58:d7:f1:8e:23:03:25:69:45:78:7d:37:69:
         02:1e:44:5e:42:16:8a:6b:e7:a4:4f:ca:f9:08:3d:81:ec:52:
         85:23:97:4a:50:54:ce:56:a1:0e:c0:1c:10:b7:2a:a9:e1:da:
         dd:f6:80:93:93:2c:64:bc:ff:4f:3f:b3:f7:49:87:1b:0a:cc:
         29:f0:e2:62:e7:09:06:b3:57:d9:ec:da:93:9f:7e:7d:ec:64:
         1f:46:8e:eb:c6:63:50:69:c0:72:a8:62:a9:99:09:12:4d:0f:
         52:c9:62:ec:32:30:20:88:a8:ac:3b:29:29:13:80:26:83:a1:
         9c:ca:4d:e0:72:e0:d1:96:f0:7f:20:7a:de:cc:f5:69:73:64:
         39:aa:8e:2b:0a:c2:23:5a:65:07:61:aa:35:67:2d:3a:41:ed:
         55:c2:b1:24:a5:a6:b4:26
-----BEGIN CERTIFICATE-----
MIIFBDCCAuygAwIBAgIBATANBgkqhkiG9w0BAQsFADB5MQswCQYDVQQGEwJCRTEQ
MA4GA1UECAwHQW50d2VycDETMBEGA1UEBwwKV2lsbGVicm9lazEXMBUGA1UECgwO
UUJpcyBQdWJsaWMgQ0ExGDAWBgNVBAMMD1FCaXMgRGVmYXVsdCBDQTEQMA4GCSqG
SIb3DQEJARYBLjAeFw0xNDExMDUxNTI2MDhaFw0yNDA4MDQxNTI2MDhaMEoxCzAJ
BgNVBAYTAkJFMRAwDgYDVQQIDAdBbnR3ZXJwMRMwEQYDVQQHDApXaWxsZWJyb2Vr
MRQwEgYDVQQDDAtRQmlzIFNlcnZlcjCCASIwDQYJKoZIhvcNAQEBBQADggEPADCC
AQoCggEBAL4GCOCAlWnZyrubxPxf8nWm9MLz6iuUcaS7bfOX7KDSXKi4PmyiV6V6
wfzdceBkneMp6HHfmN8e+jmnwwlwn96lPIfakJAv/DQFJe5F2fnUdVYjhv5Z+dGR
olq84udlWd/E90Jn71zLd604WTBdxZT2Pa2wTpDviJ1Tq1dwmXBdUuOaOgsZlm/p
VhBqZuKJS1OneepGV7lDsc8S5VvqJtzRunQKb9ecJ8eAZXEetAl2xISYqOMP6IX6
aOI1BD2Uf86uOi1dwiJdaAkeP9clgROPaNQdJje6zNqrRaOD/rho6fKnmLbwUdeN
8lmpf+oEhpzkoRLC9FrnZ+JEMXF7ORkCAwEAAaOBxTCBwjAdBgNVHQ4EFgQUL7oG
mPqu0UkjJJTf5hItdS4FeTcwHwYDVR0jBBgwFoAU2cEdfSNIgolD5iEyUksxjfE8
zr4wCQYDVR0TBAIwADALBgNVHQ8EBAMCBeAwOgYDVR0RBDMwMYIEa2lmZoISa2lm
Zi5xYXZhbm5hLmludHJhghVxYXZhbm5hLnNlcnZlYmVlci5jb20wLAYJYIZIAYb4
QgENBB8WHU9wZW5TU0wgR2VuZXJhdGVkIENlcnRpZmljYXRlMA0GCSqGSIb3DQEB
CwUAA4ICAQAViwtPm35jUbJ7aem+J/+rt3rBUNd6WeoACddbPftjYiCE8oKNCAIB
kMHLbXNgU2PmC25EsOrbjtGjk5tcfA75sHUy6s5gf15nlxfiszfUW0rU35ga/Aaa
Zq6lLBRxpaJvuPTUkvq1QauQbv+Nt51JyS/81r1B7JAegGRxVBvdwcwcTfAB9Wrg
AerJRfo7ZymdUMx4h3XktRjmwmEIn/VlyqVk/3cI0eL8Wb+AR8v8bJ0j8571Mdwh
4SzEP7YOer3UxWJ+dium9ihOBPs8KV3yQZ8KokGPKZlajqtHKwA057vDuO8J+YMo
Sj6Yk9YzwiGLo0Hf+9aojNZJfVQ07ypyfOxZntZOhZ1rhe9EHbDr427Ujqj8W3gT
9YK4dpwaqXVyrGTG3MZKvvfSGx5ryUG3kXjkDuY5orkqpWaIjn8rEPB3IB+EBUs2
pHQbHJ/TN8jOgXl2gOCsFzawUFjX8Y4jAyVpRXh9N2kCHkReQhaKa+ekT8r5CD2B
7FKFI5dKUFTOVqEOwBwQtyqp4drd9oCTkyxkvP9PP7P3SYcbCswp8OJi5wkGs1fZ
7NqTn3597GQfRo7rxmNQacByqGKpmQkSTQ9SyWLsMjAgiKisOykpE4Amg6Gcyk3g
cuDRlvB/IHrezPVpc2Q5qo4rCsIjWmUHYao1Zy06Qe1VwrEkpaa0Jg==
-----END CERTIFICATE-----
