Certificate:
    Data:
        Version: 3 (0x2)
        Serial Number: 3 (0x3)
    Signature Algorithm: sha256WithRSAEncryption
        Issuer: C=BE, ST=Antwerp, L=Willebroek, O=QBis Public CA, CN=QBis Default CA/emailAddress=.
        Validity
            Not Before: Nov 17 12:47:55 2014 GMT
            Not After : Aug 16 12:47:55 2024 GMT
        Subject: C=BE, ST=Antwerp, L=Willebroek, CN=QBis Server
        Subject Public Key Info:
            Public Key Algorithm: rsaEncryption
                Public-Key: (2048 bit)
                Modulus:
                    00:ee:5d:b7:b7:16:28:e3:61:7d:dc:e9:49:f8:99:
                    7a:fc:38:89:8b:a7:8d:21:f7:16:85:ce:4e:58:f8:
                    36:e8:4b:7b:b7:0c:87:24:2e:3b:40:7b:76:cf:31:
                    7e:87:98:b3:16:aa:20:07:61:da:85:84:78:0e:5f:
                    86:7b:99:c1:03:9a:4e:d0:14:be:b9:e5:aa:0d:8a:
                    5b:d4:02:c9:85:6b:59:47:76:43:1b:5e:ad:24:58:
                    a9:3a:ee:7e:ab:4c:d4:7c:31:59:3c:ea:3d:a8:41:
                    1a:56:84:2c:bc:e8:7d:67:05:77:12:c3:c0:a2:97:
                    dd:31:84:99:12:b1:64:3d:ad:4b:18:b4:93:03:cf:
                    43:65:a8:dc:11:27:9b:5e:8a:36:0c:f3:0e:d3:36:
                    c9:f9:ba:fb:42:c4:c9:82:0c:89:85:4d:0b:45:d6:
                    99:99:6a:60:71:80:8f:f5:be:64:2c:b0:40:cc:c1:
                    88:b5:62:22:ef:f0:ad:97:c4:2a:10:1e:7a:00:61:
                    29:fe:79:61:64:11:d4:bc:f5:62:c6:09:92:aa:c3:
                    28:80:23:5e:05:fd:0d:a9:c5:dc:3c:fe:17:13:9c:
                    7d:5f:62:84:a6:a2:8b:89:ac:d3:46:c9:16:0e:75:
                    58:e2:2c:25:f4:53:61:c1:64:f5:7a:14:9e:3f:12:
                    25:41
                Exponent: 65537 (0x10001)
        X509v3 extensions:
            X509v3 Subject Key Identifier: 
                89:13:04:B2:89:4B:30:8E:16:10:EC:4D:63:B5:DD:FB:09:A5:64:BB
            X509v3 Authority Key Identifier: 
                keyid:1C:06:88:CB:47:E0:3D:97:74:23:21:C1:8A:DC:93:28:8A:54:BB:84

            X509v3 Basic Constraints: 
                CA:FALSE
            X509v3 Key Usage: 
                Digital Signature, Non Repudiation, Key Encipherment
            X509v3 Subject Alternative Name: 
                DNS:kiff, DNS:kiff.qavanna.intra, DNS:qavanna.servebeer.com
            Netscape Comment: 
                OpenSSL Generated Certificate
    Signature Algorithm: sha256WithRSAEncryption
         7f:cd:40:5c:7c:37:91:50:60:ee:d0:f3:a4:52:6b:a7:e1:1e:
         ef:1a:0b:46:c4:6e:e6:88:c9:a9:64:f6:91:61:7b:17:5e:02:
         9d:15:89:e3:70:67:fd:ba:e6:f9:d0:9b:fe:10:29:f3:1a:0b:
         d1:c9:8b:64:fe:0c:8c:b2:dc:36:dc:79:54:0e:84:57:47:05:
         19:6f:77:4b:8d:f6:79:2d:30:84:96:da:ec:7a:a6:ef:52:0f:
         0d:7d:02:6c:0a:e8:84:7b:81:5a:cd:cc:2d:84:d7:bb:03:04:
         8d:a2:cc:30:89:dc:49:76:79:bc:6f:6f:cc:d6:3f:ab:26:05:
         57:fc:e6:f7:2c:ee:58:0d:ef:a7:bf:6d:4f:11:0e:26:b6:f6:
         d1:34:7d:7e:9a:f7:b1:3e:cd:3e:2b:4a:fc:d7:5a:ee:1e:11:
         bc:4b:3c:e1:8e:b6:d1:bc:9d:31:ff:68:8c:66:aa:64:eb:43:
         a9:e3:56:30:ad:fe:9e:9b:52:b4:8e:78:7a:7c:3c:04:e0:db:
         57:6d:b8:80:bd:da:e8:73:c9:b1:68:aa:74:27:3d:c0:b1:99:
         b4:3b:cc:d4:81:62:3c:cd:e1:db:83:15:ea:32:73:f8:36:f9:
         06:88:17:2d:62:c5:b7:77:77:f6:90:5d:81:ec:28:50:d8:ef:
         94:48:02:f8:87:19:0c:3d:c3:b6:2b:60:f5:4b:6f:3a:25:f0:
         73:05:b1:98:18:08:04:d5:d2:31:87:5a:ea:a7:75:96:9d:9c:
         a8:0c:ab:b4:a8:dc:f7:9d:20:f9:0b:2f:93:d0:2e:02:b8:a6:
         7d:ad:a4:73:f4:e5:c5:b6:af:f7:1a:26:66:a1:7f:a5:a4:02:
         bc:bd:d4:8a:86:92:bf:d9:2a:29:d2:8b:d6:4c:ae:23:35:c4:
         f3:cc:be:df:99:dd:77:73:4d:2b:ea:67:2c:c5:d0:12:29:f4:
         dd:5c:56:a4:e5:1c:dd:ba:5b:4e:c0:a1:48:fd:8d:c8:56:9f:
         cf:f5:f9:e2:4a:36:c6:c8:1c:1d:46:c0:35:10:90:4a:9d:0e:
         2c:6a:39:21:dd:b8:de:4e:7b:25:a7:6b:a1:e6:91:2f:5c:a1:
         42:41:8e:19:3c:2c:f8:1c:0d:34:91:2e:49:18:b8:f5:4d:eb:
         2b:66:cb:0b:94:cd:ee:01:a6:43:53:e7:5e:71:32:29:61:bd:
         c0:9e:4f:b7:44:b9:44:19:12:eb:2a:ea:2a:c5:d4:28:0d:51:
         2a:90:fc:49:7c:ae:1d:ab:b8:e8:4a:a3:23:78:be:5d:48:c5:
         fd:ea:30:c3:51:87:1f:23:47:76:72:a0:6a:b2:a5:34:fd:9c:
         c0:65:74:24:5f:40:33:51
-----BEGIN CERTIFICATE-----
MIIFBDCCAuygAwIBAgIBAzANBgkqhkiG9w0BAQsFADB5MQswCQYDVQQGEwJCRTEQ
MA4GA1UECAwHQW50d2VycDETMBEGA1UEBwwKV2lsbGVicm9lazEXMBUGA1UECgwO
UUJpcyBQdWJsaWMgQ0ExGDAWBgNVBAMMD1FCaXMgRGVmYXVsdCBDQTEQMA4GCSqG
SIb3DQEJARYBLjAeFw0xNDExMTcxMjQ3NTVaFw0yNDA4MTYxMjQ3NTVaMEoxCzAJ
BgNVBAYTAkJFMRAwDgYDVQQIDAdBbnR3ZXJwMRMwEQYDVQQHDApXaWxsZWJyb2Vr
MRQwEgYDVQQDDAtRQmlzIFNlcnZlcjCCASIwDQYJKoZIhvcNAQEBBQADggEPADCC
AQoCggEBAO5dt7cWKONhfdzpSfiZevw4iYunjSH3FoXOTlj4NuhLe7cMhyQuO0B7
ds8xfoeYsxaqIAdh2oWEeA5fhnuZwQOaTtAUvrnlqg2KW9QCyYVrWUd2QxterSRY
qTrufqtM1HwxWTzqPahBGlaELLzofWcFdxLDwKKX3TGEmRKxZD2tSxi0kwPPQ2Wo
3BEnm16KNgzzDtM2yfm6+0LEyYIMiYVNC0XWmZlqYHGAj/W+ZCywQMzBiLViIu/w
rZfEKhAeegBhKf55YWQR1Lz1YsYJkqrDKIAjXgX9DanF3Dz+FxOcfV9ihKaii4ms
00bJFg51WOIsJfRTYcFk9XoUnj8SJUECAwEAAaOBxTCBwjAdBgNVHQ4EFgQUiRME
solLMI4WEOxNY7Xd+wmlZLswHwYDVR0jBBgwFoAUHAaIy0fgPZd0IyHBityTKIpU
u4QwCQYDVR0TBAIwADALBgNVHQ8EBAMCBeAwOgYDVR0RBDMwMYIEa2lmZoISa2lm
Zi5xYXZhbm5hLmludHJhghVxYXZhbm5hLnNlcnZlYmVlci5jb20wLAYJYIZIAYb4
QgENBB8WHU9wZW5TU0wgR2VuZXJhdGVkIENlcnRpZmljYXRlMA0GCSqGSIb3DQEB
CwUAA4ICAQB/zUBcfDeRUGDu0POkUmun4R7vGgtGxG7miMmpZPaRYXsXXgKdFYnj
cGf9uub50Jv+ECnzGgvRyYtk/gyMstw23HlUDoRXRwUZb3dLjfZ5LTCEltrseqbv
Ug8NfQJsCuiEe4FazcwthNe7AwSNoswwidxJdnm8b2/M1j+rJgVX/Ob3LO5YDe+n
v21PEQ4mtvbRNH1+mvexPs0+K0r811ruHhG8SzzhjrbRvJ0x/2iMZqpk60Op41Yw
rf6em1K0jnh6fDwE4NtXbbiAvdroc8mxaKp0Jz3AsZm0O8zUgWI8zeHbgxXqMnP4
NvkGiBctYsW3d3f2kF2B7ChQ2O+USAL4hxkMPcO2K2D1S286JfBzBbGYGAgE1dIx
h1rqp3WWnZyoDKu0qNz3nSD5Cy+T0C4CuKZ9raRz9OXFtq/3GiZmoX+lpAK8vdSK
hpK/2Sop0ovWTK4jNcTzzL7fmd13c00r6mcsxdASKfTdXFak5RzdultOwKFI/Y3I
Vp/P9fniSjbGyBwdRsA1EJBKnQ4sajkh3bjeTnslp2uh5pEvXKFCQY4ZPCz4HA00
kS5JGLj1TesrZssLlM3uAaZDU+decTIpYb3Ank+3RLlEGRLrKuoqxdQoDVEqkPxJ
fK4dq7joSqMjeL5dSMX96jDDUYcfI0d2cqBqsqU0/ZzAZXQkX0AzUQ==
-----END CERTIFICATE-----
